target datalayout = "e-m:e-p270:32:32-p271:32:32-p272:64:64-i64:64-i128:128-f80:128-n8:16:32:64-S128"
target triple = "x86_64-pc-linux-gnu"

%struct._dcerpc_info = type { ptr, i32, i64, i8, i8, i8, i32, i32, i32, i32, i32, i32, i32, i32, ptr, ptr, ptr, ptr, %struct.anon }
%struct.anon = type { i8, ptr, ptr, ptr, i8 }
%struct._packet_info = type { ptr, ptr, i32, i32, %struct.nstime_t, %struct.nstime_t, %struct.nstime_t, i8, ptr, ptr, ptr, ptr, %struct._address, %struct._address, %struct._address, %struct._address, %struct._address, %struct._address, i32, ptr, i8, [3 x i8], %struct.anon.0, i32, i32, i32, i32, ptr, i8, ptr, ptr, i16, i16, i32, i32, i16, i32, i32, ptr, ptr, ptr, i8, i8, i16, i16, i16, i32, i16, i16, ptr, ptr, ptr, ptr, ptr, i32, i32 }
%struct.nstime_t = type { i64, i32 }
%struct._address = type { i32, i32, ptr, ptr }
%struct.anon.0 = type { i8, [3 x i8] }
%struct._header_field_info = type { ptr, ptr, i32, i32, ptr, i64, ptr, i32, i32, i32, i32, ptr }

@.str = private unnamed_addr constant [7 x i8] c"%s(%d)\00", align 1
@.str.1 = private unnamed_addr constant [11 x i8] c"Unknown:%u\00", align 1
@.str.2 = private unnamed_addr constant [3 x i8] c"%d\00", align 1
@.str.5 = private unnamed_addr constant [26 x i8] c"Invalid hf->display value\00", align 1
@.str.6 = private unnamed_addr constant [7 x i8] c" %s:%s\00", align 1
@.str.9 = private unnamed_addr constant [11 x i8] c"%s(0x%08x)\00", align 1
@.str.10 = private unnamed_addr constant [7 x i8] c"0x%08x\00", align 1

; Function Attrs: null_pointer_is_valid sspstrong uwtable
define hidden i32 @PIDL_dissect_uint32_val(ptr noundef %0, i32 noundef %1, ptr noundef %2, ptr noundef %3, ptr noundef %4, ptr noundef %5, i32 noundef %6, i32 noundef %7, ptr noundef %8) #0 {
  %10 = alloca i32, align 4
  %11 = alloca ptr, align 8
  %12 = alloca i32, align 4
  %13 = alloca ptr, align 8
  %14 = alloca ptr, align 8
  %15 = alloca ptr, align 8
  %16 = alloca ptr, align 8
  %17 = alloca i32, align 4
  %18 = alloca i32, align 4
  %19 = alloca ptr, align 8
  %20 = alloca i32, align 4
  %21 = alloca i32, align 4
  %22 = alloca ptr, align 8
  %23 = alloca ptr, align 8
  store ptr %0, ptr %11, align 8
  store i32 %1, ptr %12, align 4
  store ptr %2, ptr %13, align 8
  store ptr %3, ptr %14, align 8
  store ptr %4, ptr %15, align 8
  store ptr %5, ptr %16, align 8
  store i32 %6, ptr %17, align 4
  store i32 %7, ptr %18, align 4
  store ptr %8, ptr %19, align 8
  call void @llvm.lifetime.start.p0(i64 4, ptr %20) #9
  %24 = load ptr, ptr %15, align 8
  %25 = getelementptr inbounds nuw %struct._dcerpc_info, ptr %24, i32 0, i32 4
  %26 = load i8, ptr %25, align 1, !range !6, !noundef !7
  %27 = trunc i8 %26 to i1
  br i1 %27, label %28, label %30

28:                                               ; preds = %9
  %29 = load i32, ptr %12, align 4
  store i32 %29, ptr %10, align 4
  store i32 1, ptr %21, align 4
  br label %131

30:                                               ; preds = %9
  %31 = load ptr, ptr %15, align 8
  %32 = getelementptr inbounds nuw %struct._dcerpc_info, ptr %31, i32 0, i32 5
  %33 = load i8, ptr %32, align 2, !range !6, !noundef !7
  %34 = trunc i8 %33 to i1
  br i1 %34, label %45, label %35

35:                                               ; preds = %30
  %36 = load i32, ptr %12, align 4
  %37 = srem i32 %36, 4
  %38 = icmp ne i32 %37, 0
  br i1 %38, label %39, label %45

39:                                               ; preds = %35
  %40 = load i32, ptr %12, align 4
  %41 = srem i32 %40, 4
  %42 = sub i32 4, %41
  %43 = load i32, ptr %12, align 4
  %44 = add i32 %43, %42
  store i32 %44, ptr %12, align 4
  br label %45

45:                                               ; preds = %39, %35, %30
  %46 = load ptr, ptr %11, align 8
  %47 = load i32, ptr %12, align 4
  %48 = load ptr, ptr %13, align 8
  %49 = load ptr, ptr %14, align 8
  %50 = load ptr, ptr %16, align 8
  %51 = load i32, ptr %17, align 4
  %52 = call i32 @dissect_dcerpc_uint32(ptr noundef %46, i32 noundef %47, ptr noundef %48, ptr noundef %49, ptr noundef %50, i32 noundef %51, ptr noundef %20)
  store i32 %52, ptr %12, align 4
  %53 = load i32, ptr %18, align 4
  %54 = and i32 %53, 268435456
  %55 = icmp ne i32 %54, 0
  br i1 %55, label %56, label %123

56:                                               ; preds = %45
  call void @llvm.lifetime.start.p0(i64 8, ptr %22) #9
  call void @llvm.lifetime.start.p0(i64 8, ptr %23) #9
  %57 = load i32, ptr %17, align 4
  %58 = call ptr @proto_registrar_get_nth(i32 noundef %57)
  store ptr %58, ptr %22, align 8
  %59 = load ptr, ptr %13, align 8
  %60 = getelementptr inbounds nuw %struct._packet_info, ptr %59, i32 0, i32 51
  %61 = load ptr, ptr %60, align 8
  %62 = call noalias ptr @wmem_alloc(ptr noundef %61, i64 noundef 64) #10
  store ptr %62, ptr %23, align 8
  %63 = load ptr, ptr %23, align 8
  %64 = getelementptr i8, ptr %63, i64 0
  store i8 0, ptr %64, align 1
  %65 = load ptr, ptr %22, align 8
  %66 = getelementptr inbounds nuw %struct._header_field_info, ptr %65, i32 0, i32 3
  %67 = load i32, ptr %66, align 4
  switch i32 %67, label %114 [
    i32 1, label %68
    i32 2, label %91
  ]

68:                                               ; preds = %56
  %69 = load ptr, ptr %22, align 8
  %70 = getelementptr inbounds nuw %struct._header_field_info, ptr %69, i32 0, i32 4
  %71 = load ptr, ptr %70, align 8
  %72 = icmp ne ptr %71, null
  br i1 %72, label %73, label %84

73:                                               ; preds = %68
  %74 = load ptr, ptr %23, align 8
  %75 = load ptr, ptr %23, align 8
  %76 = call i64 @llvm.objectsize.i64.p0(ptr %75, i1 false, i1 true, i1 true)
  %77 = load i32, ptr %20, align 4
  %78 = load ptr, ptr %22, align 8
  %79 = getelementptr inbounds nuw %struct._header_field_info, ptr %78, i32 0, i32 4
  %80 = load ptr, ptr %79, align 8
  %81 = call ptr @val_to_str(i32 noundef %77, ptr noundef %80, ptr noundef @.str.1)
  %82 = load i32, ptr %20, align 4
  %83 = call i32 (ptr, i64, i32, i64, ptr, ...) @__snprintf_chk(ptr noundef %74, i64 noundef 64, i32 noundef 2, i64 noundef %76, ptr noundef @.str, ptr noundef %81, i32 noundef %82)
  br label %90

84:                                               ; preds = %68
  %85 = load ptr, ptr %23, align 8
  %86 = load ptr, ptr %23, align 8
  %87 = call i64 @llvm.objectsize.i64.p0(ptr %86, i1 false, i1 true, i1 true)
  %88 = load i32, ptr %20, align 4
  %89 = call i32 (ptr, i64, i32, i64, ptr, ...) @__snprintf_chk(ptr noundef %85, i64 noundef 64, i32 noundef 2, i64 noundef %87, ptr noundef @.str.2, i32 noundef %88)
  br label %90

90:                                               ; preds = %84, %73
  br label %115

91:                                               ; preds = %56
  %92 = load ptr, ptr %22, align 8
  %93 = getelementptr inbounds nuw %struct._header_field_info, ptr %92, i32 0, i32 4
  %94 = load ptr, ptr %93, align 8
  %95 = icmp ne ptr %94, null
  br i1 %95, label %96, label %107

96:                                               ; preds = %91
  %97 = load ptr, ptr %23, align 8
  %98 = load ptr, ptr %23, align 8
  %99 = call i64 @llvm.objectsize.i64.p0(ptr %98, i1 false, i1 true, i1 true)
  %100 = load i32, ptr %20, align 4
  %101 = load ptr, ptr %22, align 8
  %102 = getelementptr inbounds nuw %struct._header_field_info, ptr %101, i32 0, i32 4
  %103 = load ptr, ptr %102, align 8
  %104 = call ptr @val_to_str(i32 noundef %100, ptr noundef %103, ptr noundef @.str.1)
  %105 = load i32, ptr %20, align 4
  %106 = call i32 (ptr, i64, i32, i64, ptr, ...) @__snprintf_chk(ptr noundef %97, i64 noundef 64, i32 noundef 2, i64 noundef %99, ptr noundef @.str.9, ptr noundef %104, i32 noundef %105)
  br label %113

107:                                              ; preds = %91
  %108 = load ptr, ptr %23, align 8
  %109 = load ptr, ptr %23, align 8
  %110 = call i64 @llvm.objectsize.i64.p0(ptr %109, i1 false, i1 true, i1 true)
  %111 = load i32, ptr %20, align 4
  %112 = call i32 (ptr, i64, i32, i64, ptr, ...) @__snprintf_chk(ptr noundef %108, i64 noundef 64, i32 noundef 2, i64 noundef %110, ptr noundef @.str.10, i32 noundef %111)
  br label %113

113:                                              ; preds = %107, %96
  br label %115

114:                                              ; preds = %56
  call void (ptr, ...) @proto_report_dissector_bug(ptr noundef @.str.5) #11
  unreachable

115:                                              ; preds = %113, %90
  %116 = load ptr, ptr %13, align 8
  %117 = getelementptr inbounds nuw %struct._packet_info, ptr %116, i32 0, i32 1
  %118 = load ptr, ptr %117, align 8
  %119 = load ptr, ptr %22, align 8
  %120 = getelementptr inbounds nuw %struct._header_field_info, ptr %119, i32 0, i32 0
  %121 = load ptr, ptr %120, align 8
  %122 = load ptr, ptr %23, align 8
  call void (ptr, i32, ptr, ...) @col_append_fstr(ptr noundef %118, i32 noundef 25, ptr noundef @.str.6, ptr noundef %121, ptr noundef %122)
  call void @llvm.lifetime.end.p0(i64 8, ptr %23) #9
  call void @llvm.lifetime.end.p0(i64 8, ptr %22) #9
  br label %123

123:                                              ; preds = %115, %45
  %124 = load ptr, ptr %19, align 8
  %125 = icmp ne ptr %124, null
  br i1 %125, label %126, label %129

126:                                              ; preds = %123
  %127 = load i32, ptr %20, align 4
  %128 = load ptr, ptr %19, align 8
  store i32 %127, ptr %128, align 4
  br label %129

129:                                              ; preds = %126, %123
  %130 = load i32, ptr %12, align 4
  store i32 %130, ptr %10, align 4
  store i32 1, ptr %21, align 4
  br label %131

131:                                              ; preds = %129, %28
  call void @llvm.lifetime.end.p0(i64 4, ptr %20) #9
  %132 = load i32, ptr %10, align 4
  ret i32 %132
}