; Function Attrs: null_pointer_is_valid sspstrong uwtable
define hidden i32 @PIDL_dissect_uint32_val(ptr noundef %0, i32 noundef %1, ptr noundef %2, ptr noundef %3, ptr noundef readonly captures(none) %4, ptr noundef %5, i32 noundef %6, i32 noundef %7, ptr noundef writeonly captures(address_is_null) %8) local_unnamed_addr #0 {
  %10 = alloca i32, align 4
  call void @llvm.lifetime.start.p0(i64 4, ptr nonnull %10) #8
  %11 = getelementptr inbounds nuw i8, ptr %4, i64 25
  %12 = load i8, ptr %11, align 1, !range !6, !noundef !7
  %13 = trunc nuw i8 %12 to i1
  br i1 %13, label %60, label %14

14:                                               ; preds = %9
  %15 = getelementptr inbounds nuw i8, ptr %4, i64 26
  %16 = load i8, ptr %15, align 2, !range !6, !noundef !7
  %17 = trunc nuw i8 %16 to i1
  br i1 %17, label %22, label %18

18:                                               ; preds = %14
  %19 = srem i32 %1, 4
  %.not = icmp eq i32 %19, 0
  br i1 %.not, label %22, label %20

20:                                               ; preds = %18
  %reass.sub = add i32 %1, 4
  %21 = sub i32 %reass.sub, %19
  br label %22

22:                                               ; preds = %20, %18, %14
  %.035 = phi i32 [ %1, %14 ], [ %21, %20 ], [ %1, %18 ]
  %23 = call i32 @dissect_dcerpc_uint32(ptr noundef %0, i32 noundef %.035, ptr noundef %2, ptr noundef %3, ptr noundef %5, i32 noundef %6, ptr noundef nonnull %10)
  %24 = and i32 %7, 268435456
  %.not40 = icmp eq i32 %24, 0
  br i1 %.not40, label %57, label %25

25:                                               ; preds = %22
  %26 = call ptr @proto_registrar_get_nth(i32 noundef %6)
  %27 = getelementptr inbounds nuw i8, ptr %2, i64 408
  %28 = load ptr, ptr %27, align 8
  %29 = call noalias dereferenceable_or_null(64) ptr @wmem_alloc(ptr noundef %28, i64 noundef 64) #9
  store i8 0, ptr %29, align 1
  %30 = getelementptr inbounds nuw i8, ptr %26, i64 20
  %31 = load i32, ptr %30, align 4
  switch i32 %31, label %52 [
    i32 1, label %32
    i32 2, label %42
  ]

32:                                               ; preds = %25
  %33 = getelementptr inbounds nuw i8, ptr %26, i64 24
  %34 = load ptr, ptr %33, align 8
  %.not42 = icmp eq ptr %34, null
  %35 = load i32, ptr %10, align 4
  br i1 %.not42, label %40, label %36

36:                                               ; preds = %32
  %37 = call ptr @val_to_str(i32 noundef %35, ptr noundef nonnull %34, ptr noundef nonnull @.str.1)
  %38 = load i32, ptr %10, align 4
  %39 = call i32 (ptr, i64, i32, i64, ptr, ...) @__snprintf_chk(ptr noundef %29, i64 noundef 64, i32 noundef 2, i64 noundef 64, ptr noundef nonnull @.str, ptr noundef %37, i32 noundef %38)
  br label %53

40:                                               ; preds = %32
  %41 = call i32 (ptr, i64, i32, i64, ptr, ...) @__snprintf_chk(ptr noundef %29, i64 noundef 64, i32 noundef 2, i64 noundef 64, ptr noundef nonnull @.str.2, i32 noundef %35)
  br label %53

42:                                               ; preds = %25
  %43 = getelementptr inbounds nuw i8, ptr %26, i64 24
  %44 = load ptr, ptr %43, align 8
  %.not41 = icmp eq ptr %44, null
  %45 = load i32, ptr %10, align 4
  br i1 %.not41, label %50, label %46

46:                                               ; preds = %42
  %47 = call ptr @val_to_str(i32 noundef %45, ptr noundef nonnull %44, ptr noundef nonnull @.str.1)
  %48 = load i32, ptr %10, align 4
  %49 = call i32 (ptr, i64, i32, i64, ptr, ...) @__snprintf_chk(ptr noundef %29, i64 noundef 64, i32 noundef 2, i64 noundef 64, ptr noundef nonnull @.str.9, ptr noundef %47, i32 noundef %48)
  br label %53

50:                                               ; preds = %42
  %51 = call i32 (ptr, i64, i32, i64, ptr, ...) @__snprintf_chk(ptr noundef %29, i64 noundef 64, i32 noundef 2, i64 noundef 64, ptr noundef nonnull @.str.10, i32 noundef %45)
  br label %53

52:                                               ; preds = %25
  call void (ptr, ...) @proto_report_dissector_bug(ptr noundef nonnull @.str.5) #10
  unreachable

53:                                               ; preds = %46, %50, %36, %40
  %54 = getelementptr inbounds nuw i8, ptr %2, i64 8
  %55 = load ptr, ptr %54, align 8
  %56 = load ptr, ptr %26, align 8
  call void (ptr, i32, ptr, ...) @col_append_fstr(ptr noundef %55, i32 noundef 25, ptr noundef nonnull @.str.6, ptr noundef %56, ptr noundef %29)
  br label %57

57:                                               ; preds = %53, %22
  %.not43 = icmp eq ptr %8, null
  br i1 %.not43, label %60, label %58

58:                                               ; preds = %57
  %59 = load i32, ptr %10, align 4
  store i32 %59, ptr %8, align 4
  br label %60

60:                                               ; preds = %57, %58, %9
  %.0 = phi i32 [ %1, %9 ], [ %23, %58 ], [ %23, %57 ]
  call void @llvm.lifetime.end.p0(i64 4, ptr nonnull %10) #8
  ret i32 %.0
}